target datalayout = "e-m:e-p270:32:32-p271:32:32-p272:64:64-i64:64-i128:128-f80:128-n8:16:32:64-S128"
target triple = "x86_64-pc-linux-gnu"

%class.dependent_expr = type { ptr, ptr, ptr, ptr }
%class.dependent_expr_state = type { ptr, i32, i8, i32, i32, i32, %class.ast_mark, %class.ref_vector, %class.trail_stack }
%class.ast_mark = type { ptr, %class.obj_mark, %class.obj_mark.0 }
%class.obj_mark = type { [8 x i8], %class.bit_vector }
%class.bit_vector = type { i32, i32, ptr }
%class.obj_mark.0 = type { [8 x i8], %class.bit_vector }
%class.ref_vector = type { %class.ref_vector_core }
%class.ref_vector_core = type { %class.ref_manager_wrapper, %class.ptr_vector }
%class.ref_manager_wrapper = type { ptr }
%class.ptr_vector = type { %class.vector }
%class.vector = type { ptr }
%class.trail_stack = type { %class.ptr_vector.1, %class.svector, %class.region }
%class.ptr_vector.1 = type { %class.vector.2 }
%class.vector.2 = type { ptr }
%class.svector = type { %class.vector.3 }
%class.vector.3 = type { ptr }
%class.region = type { ptr, ptr, ptr, ptr, ptr }
%class.app = type { %class.expr, ptr, i32, %struct.app_flags, [0 x ptr] }
%class.expr = type { %class.ast }
%class.ast = type { i32, i32, i32, i32 }
%struct.app_flags = type <{ i16, i8, i8 }>

; Function Attrs: mustprogress nounwind uwtable
define linkonce_odr hidden noundef i32 @_ZNK3ast8get_kindEv(ptr noundef nonnull align 4 dereferenceable(16) %0) #7 comdat align 2 {
  %2 = alloca ptr, align 8
  store ptr %0, ptr %2, align 8, !tbaa !29
  %3 = load ptr, ptr %2, align 8
  %4 = getelementptr inbounds nuw %class.ast, ptr %3, i32 0, i32 1
  %5 = load i32, ptr %4, align 4
  %6 = and i32 %5, 65535
  ret i32 %6
}

; Function Attrs: inlinehint mustprogress nounwind uwtable
define linkonce_odr hidden noundef zeroext i1 @_Z13is_quantifierPK3ast(ptr noundef %0) #6 comdat {
  %2 = alloca ptr, align 8
  store ptr %0, ptr %2, align 8, !tbaa !29
  %3 = load ptr, ptr %2, align 8, !tbaa !29
  %4 = call noundef i32 @_ZNK3ast8get_kindEv(ptr noundef nonnull align 4 dereferenceable(16) %3)
  %5 = icmp eq i32 %4, 2
  ret i1 %5
}

; Function Attrs: mustprogress nounwind uwtable
define linkonce_odr hidden noundef zeroext i1 @_ZNK3app15has_quantifiersEv(ptr noundef nonnull align 8 dereferenceable(32) %0) #7 comdat align 2 {
  %2 = alloca ptr, align 8
  store ptr %0, ptr %2, align 8, !tbaa !31
  %3 = load ptr, ptr %2, align 8
  %4 = getelementptr inbounds nuw %class.app, ptr %3, i32 0, i32 3
  %5 = getelementptr inbounds nuw %struct.app_flags, ptr %4, i32 0, i32 1
  %6 = load i8, ptr %5, align 2
  %7 = lshr i8 %6, 1
  %8 = and i8 %7, 1
  %9 = zext i8 %8 to i32
  %10 = icmp ne i32 %9, 0
  ret i1 %10
}

; Function Attrs: inlinehint mustprogress nounwind uwtable
define linkonce_odr hidden noundef ptr @_Z6to_appPK3ast(ptr noundef %0) #6 comdat {
  %2 = alloca ptr, align 8
  store ptr %0, ptr %2, align 8, !tbaa !29
  %3 = load ptr, ptr %2, align 8, !tbaa !29
  ret ptr %3
}

; Function Attrs: inlinehint mustprogress uwtable
define linkonce_odr hidden noundef zeroext i1 @_Z6is_appPK3ast(ptr noundef %0) #8 comdat {
  %2 = alloca ptr, align 8
  store ptr %0, ptr %2, align 8, !tbaa !29
  %3 = load ptr, ptr %2, align 8, !tbaa !29
  %4 = call noundef i32 @_ZNK3ast8get_kindEv(ptr noundef nonnull align 4 dereferenceable(16) %3)
  %5 = icmp eq i32 %4, 0
  ret i1 %5
}

; Function Attrs: inlinehint mustprogress uwtable
define linkonce_odr hidden noundef zeroext i1 @_Z15has_quantifiersPK4expr(ptr noundef %0) #8 comdat {
  %2 = alloca ptr, align 8
  store ptr %0, ptr %2, align 8, !tbaa !28
  %3 = load ptr, ptr %2, align 8, !tbaa !28
  %4 = call noundef zeroext i1 @_Z6is_appPK3ast(ptr noundef %3)
  br i1 %4, label %5, label %9

5:                                                ; preds = %1
  %6 = load ptr, ptr %2, align 8, !tbaa !28
  %7 = call noundef ptr @_Z6to_appPK3ast(ptr noundef %6)
  %8 = call noundef zeroext i1 @_ZNK3app15has_quantifiersEv(ptr noundef nonnull align 8 dereferenceable(32) %7)
  br label %12

9:                                                ; preds = %1
  %10 = load ptr, ptr %2, align 8, !tbaa !28
  %11 = call noundef zeroext i1 @_Z13is_quantifierPK3ast(ptr noundef %10)
  br label %12

12:                                               ; preds = %9, %5
  %13 = phi i1 [ %8, %5 ], [ %11, %9 ]
  ret i1 %13
}

; Function Attrs: mustprogress nounwind uwtable
define linkonce_odr hidden noundef ptr @_ZNK14dependent_expr3fmlEv(ptr noundef nonnull align 8 dereferenceable(32) %0) #7 comdat align 2 {
  %2 = alloca ptr, align 8
  store ptr %0, ptr %2, align 8, !tbaa !16
  %3 = load ptr, ptr %2, align 8
  %4 = getelementptr inbounds nuw %class.dependent_expr, ptr %3, i32 0, i32 1
  %5 = load ptr, ptr %4, align 8, !tbaa !18
  ret ptr %5
}

; Function Attrs: mustprogress nounwind uwtable
define linkonce_odr hidden noundef i32 @_ZNK20dependent_expr_state5qheadEv(ptr noundef nonnull align 8 dereferenceable(160) %0) #7 comdat align 2 {
  %2 = alloca ptr, align 8
  store ptr %0, ptr %2, align 8, !tbaa !3
  %3 = load ptr, ptr %2, align 8
  %4 = getelementptr inbounds nuw %class.dependent_expr_state, ptr %3, i32 0, i32 1
  %5 = load i32, ptr %4, align 8, !tbaa !136
  ret i32 %5
}

; Function Attrs: mustprogress uwtable
define hidden noundef zeroext i1 @_ZN20dependent_expr_state15has_quantifiersEv(ptr noundef nonnull align 8 dereferenceable(160) %0) #4 align 2 {
  %2 = alloca i1, align 1
  %3 = alloca ptr, align 8
  %4 = alloca i8, align 1
  %5 = alloca i32, align 4
  store ptr %0, ptr %3, align 8, !tbaa !3
  %6 = load ptr, ptr %3, align 8
  %7 = getelementptr inbounds nuw %class.dependent_expr_state, ptr %6, i32 0, i32 5
  %8 = load i32, ptr %7, align 8, !tbaa !150
  %9 = icmp ne i32 %8, 0
  br i1 %9, label %10, label %14

10:                                               ; preds = %1
  %11 = getelementptr inbounds nuw %class.dependent_expr_state, ptr %6, i32 0, i32 5
  %12 = load i32, ptr %11, align 8, !tbaa !150
  %13 = icmp eq i32 %12, 1
  store i1 %13, ptr %2, align 1
  br label %50

14:                                               ; preds = %1
  call void @llvm.lifetime.start.p0(i64 1, ptr %4) #3
  store i8 0, ptr %4, align 1, !tbaa !40
  call void @llvm.lifetime.start.p0(i64 4, ptr %5) #3
  %15 = call noundef i32 @_ZNK20dependent_expr_state5qheadEv(ptr noundef nonnull align 8 dereferenceable(160) %6)
  store i32 %15, ptr %5, align 4, !tbaa !8
  br label %16

16:                                               ; preds = %39, %14
  %17 = load i32, ptr %5, align 4, !tbaa !8
  %18 = load ptr, ptr %6, align 8, !tbaa !10
  %19 = getelementptr inbounds ptr, ptr %18, i64 2
  %20 = load ptr, ptr %19, align 8
  %21 = call noundef i32 %20(ptr noundef nonnull align 8 dereferenceable(160) %6)
  %22 = icmp ult i32 %17, %21
  br i1 %22, label %24, label %23

23:                                               ; preds = %16
  call void @llvm.lifetime.end.p0(i64 4, ptr %5) #3
  br label %42

24:                                               ; preds = %16
  %25 = load i32, ptr %5, align 4, !tbaa !8
  %26 = load ptr, ptr %6, align 8, !tbaa !10
  %27 = getelementptr inbounds ptr, ptr %26, i64 3
  %28 = load ptr, ptr %27, align 8
  %29 = call noundef nonnull align 8 dereferenceable(32) ptr %28(ptr noundef nonnull align 8 dereferenceable(160) %6, i32 noundef %25)
  %30 = call noundef ptr @_ZNK14dependent_expr3fmlEv(ptr noundef nonnull align 8 dereferenceable(32) %29)
  %31 = call noundef zeroext i1 @_Z15has_quantifiersPK4expr(ptr noundef %30)
  %32 = zext i1 %31 to i32
  %33 = load i8, ptr %4, align 1, !tbaa !40, !range !43, !noundef !44
  %34 = trunc i8 %33 to i1
  %35 = zext i1 %34 to i32
  %36 = or i32 %35, %32
  %37 = icmp ne i32 %36, 0
  %38 = zext i1 %37 to i8
  store i8 %38, ptr %4, align 1, !tbaa !40
  br label %39

39:                                               ; preds = %24
  %40 = load i32, ptr %5, align 4, !tbaa !8
  %41 = add i32 %40, 1
  store i32 %41, ptr %5, align 4, !tbaa !8
  br label %16, !llvm.loop !151

42:                                               ; preds = %23
  %43 = load i8, ptr %4, align 1, !tbaa !40, !range !43, !noundef !44
  %44 = trunc i8 %43 to i1
  %45 = select i1 %44, i32 1, i32 -1
  %46 = getelementptr inbounds nuw %class.dependent_expr_state, ptr %6, i32 0, i32 5
  store i32 %45, ptr %46, align 8, !tbaa !150
  %47 = getelementptr inbounds nuw %class.dependent_expr_state, ptr %6, i32 0, i32 5
  %48 = load i32, ptr %47, align 8, !tbaa !150
  %49 = icmp eq i32 %48, 1
  store i1 %49, ptr %2, align 1
  call void @llvm.lifetime.end.p0(i64 1, ptr %4) #3
  br label %50

50:                                               ; preds = %42, %10
  %51 = load i1, ptr %2, align 1
  ret i1 %51
}