; Function Attrs: mustprogress uwtable
define hidden noundef zeroext i1 @_ZN20dependent_expr_state15has_quantifiersEv(ptr noundef nonnull align 8 dereferenceable(160) %0) local_unnamed_addr #3 align 2 {
  %2 = getelementptr inbounds nuw i8, ptr %0, i64 24
  %3 = load i32, ptr %2, align 8, !tbaa !187
  %.not = icmp eq i32 %3, 0
  br i1 %.not, label %6, label %4

4:                                                ; preds = %1
  %5 = icmp eq i32 %3, 1
  br label %40

6:                                                ; preds = %1
  %7 = getelementptr inbounds nuw i8, ptr %0, i64 8
  %8 = load i32, ptr %7, align 8, !tbaa !177
  %9 = load ptr, ptr %0, align 8, !tbaa !13
  %10 = getelementptr inbounds nuw i8, ptr %9, i64 16
  %11 = load ptr, ptr %10, align 8
  %12 = tail call noundef i32 %11(ptr noundef nonnull align 8 dereferenceable(160) %0)
  %13 = icmp ult i32 %8, %12
  br i1 %13, label %.lr.ph, label %._crit_edge.thread

._crit_edge:                                      ; preds = %_Z15has_quantifiersPK4expr.exit
  %spec.select = select i1 %33, i32 1, i32 -1
  br label %._crit_edge.thread

._crit_edge.thread:                               ; preds = %._crit_edge, %6
  %.06.lcssa13 = phi i1 [ false, %6 ], [ %33, %._crit_edge ]
  %14 = phi i32 [ -1, %6 ], [ %spec.select, %._crit_edge ]
  store i32 %14, ptr %2, align 8, !tbaa !187
  br label %40

.lr.ph:                                           ; preds = %6, %_Z15has_quantifiersPK4expr.exit
  %.010 = phi i32 [ %34, %_Z15has_quantifiersPK4expr.exit ], [ %8, %6 ]
  %.069 = phi i1 [ %33, %_Z15has_quantifiersPK4expr.exit ], [ false, %6 ]
  %15 = load ptr, ptr %0, align 8, !tbaa !13
  %16 = getelementptr inbounds nuw i8, ptr %15, i64 24
  %17 = load ptr, ptr %16, align 8
  %18 = tail call noundef nonnull align 8 dereferenceable(32) ptr %17(ptr noundef nonnull align 8 dereferenceable(160) %0, i32 noundef %.010)
  %19 = getelementptr inbounds nuw i8, ptr %18, i64 8
  %20 = load ptr, ptr %19, align 8, !tbaa !17
  %21 = getelementptr inbounds nuw i8, ptr %20, i64 4
  %22 = load i32, ptr %21, align 4
  %23 = and i32 %22, 65535
  %24 = icmp eq i32 %23, 0
  br i1 %24, label %25, label %30

25:                                               ; preds = %.lr.ph
  %26 = getelementptr inbounds nuw i8, ptr %20, i64 30
  %27 = load i8, ptr %26, align 2
  %28 = and i8 %27, 2
  %29 = icmp ne i8 %28, 0
  br label %_Z15has_quantifiersPK4expr.exit

30:                                               ; preds = %.lr.ph
  %31 = icmp eq i32 %23, 2
  br label %_Z15has_quantifiersPK4expr.exit

_Z15has_quantifiersPK4expr.exit:                  ; preds = %25, %30
  %32 = phi i1 [ %29, %25 ], [ %31, %30 ]
  %.fr = freeze i1 %32
  %33 = or i1 %.069, %.fr
  %34 = add nuw i32 %.010, 1
  %35 = load ptr, ptr %0, align 8, !tbaa !13
  %36 = getelementptr inbounds nuw i8, ptr %35, i64 16
  %37 = load ptr, ptr %36, align 8
  %38 = tail call noundef i32 %37(ptr noundef nonnull align 8 dereferenceable(160) %0)
  %39 = icmp ult i32 %34, %38
  br i1 %39, label %.lr.ph, label %._crit_edge, !llvm.loop !188

40:                                               ; preds = %._crit_edge.thread, %4
  %.07 = phi i1 [ %5, %4 ], [ %.06.lcssa13, %._crit_edge.thread ]
  ret i1 %.07
}